; Function Attrs: nounwind uwtable
define ptr @l_Lean_Server_Completion_findCompletionInfosAt_go(ptr noundef %0, ptr noundef %1, ptr noundef %2, ptr noundef %3, ptr noundef %4, ptr noundef %5) local_unnamed_addr #0 {
  %7 = ptrtoint ptr %4 to i64
  %8 = and i64 %7, 1
  %.not.i46 = icmp eq i64 %8, 0
  br i1 %.not.i46, label %lean_obj_tag.exit.thread, label %lean_obj_tag.exit

lean_obj_tag.exit:                                ; preds = %6
  %9 = and i64 %7, 8589934590
  %10 = icmp eq i64 %9, 14
  br i1 %10, label %13, label %lean_dec.exit26

lean_obj_tag.exit.thread:                         ; preds = %6
  %11 = getelementptr i8, ptr %4, i64 4
  %.val.i = load i32, ptr %11, align 4
  %.mask = and i32 %.val.i, -16777216
  %12 = icmp eq i32 %.mask, 117440512
  br i1 %12, label %13, label %.thread50

13:                                               ; preds = %lean_obj_tag.exit.thread, %lean_obj_tag.exit
  %14 = getelementptr inbounds nuw i8, ptr %4, i64 8
  %15 = load ptr, ptr %14, align 8, !tbaa !4
  %16 = ptrtoint ptr %15 to i64
  %17 = and i64 %16, 1
  %.not52 = icmp eq i64 %17, 0
  br i1 %.not52, label %18, label %lean_inc.exit.thread

18:                                               ; preds = %13
  %.val.i47 = load i32, ptr %15, align 4, !tbaa !8
  %19 = icmp sgt i32 %.val.i47, 0
  br i1 %19, label %20, label %22, !prof !11

20:                                               ; preds = %18
  %21 = add nuw i32 %.val.i47, 1
  store i32 %21, ptr %15, align 4, !tbaa !8
  br label %lean_inc.exit

22:                                               ; preds = %18
  %.not.i48 = icmp eq i32 %.val.i47, 0
  br i1 %.not.i48, label %lean_inc.exit, label %23

23:                                               ; preds = %22
  tail call void @lean_inc_ref_cold(ptr noundef nonnull %15) #4
  br label %lean_inc.exit

lean_inc.exit:                                    ; preds = %23, %22, %20
  %24 = tail call zeroext i8 @l_Lean_Elab_Info_occursInOrOnBoundary(ptr noundef nonnull %4, ptr noundef %1) #4
  %25 = icmp eq i8 %24, 0
  br i1 %25, label %28, label %60

lean_inc.exit.thread:                             ; preds = %13
  %26 = tail call zeroext i8 @l_Lean_Elab_Info_occursInOrOnBoundary(ptr noundef nonnull %4, ptr noundef %1) #4
  %27 = icmp eq i8 %26, 0
  br i1 %27, label %lean_dec.exit31, label %60

28:                                               ; preds = %lean_inc.exit
  %29 = load i32, ptr %15, align 4, !tbaa !8
  %30 = icmp sgt i32 %29, 1
  br i1 %30, label %31, label %33, !prof !11

31:                                               ; preds = %28
  %32 = add nsw i32 %29, -1
  store i32 %32, ptr %15, align 4, !tbaa !8
  br label %lean_dec.exit31

33:                                               ; preds = %28
  %.not.i = icmp eq i32 %29, 0
  br i1 %.not.i, label %lean_dec.exit31, label %34

34:                                               ; preds = %33
  tail call void @lean_dec_ref_cold(ptr noundef nonnull %15) #4
  br label %lean_dec.exit31

lean_dec.exit31:                                  ; preds = %lean_inc.exit.thread, %34, %33, %31
  br i1 %.not.i46, label %35, label %lean_dec.exit30

35:                                               ; preds = %lean_dec.exit31
  %36 = load i32, ptr %4, align 4, !tbaa !8
  %37 = icmp sgt i32 %36, 1
  br i1 %37, label %38, label %40, !prof !11

38:                                               ; preds = %35
  %39 = add nsw i32 %36, -1
  store i32 %39, ptr %4, align 4, !tbaa !8
  br label %lean_dec.exit30

40:                                               ; preds = %35
  %.not.i32 = icmp eq i32 %36, 0
  br i1 %.not.i32, label %lean_dec.exit30, label %41

41:                                               ; preds = %40
  tail call void @lean_dec_ref_cold(ptr noundef nonnull %4) #4
  br label %lean_dec.exit30

lean_dec.exit30:                                  ; preds = %41, %40, %38, %lean_dec.exit31
  %42 = ptrtoint ptr %3 to i64
  %43 = and i64 %42, 1
  %.not55 = icmp eq i64 %43, 0
  br i1 %.not55, label %44, label %lean_dec.exit29

44:                                               ; preds = %lean_dec.exit30
  %45 = load i32, ptr %3, align 4, !tbaa !8
  %46 = icmp sgt i32 %45, 1
  br i1 %46, label %47, label %49, !prof !11

47:                                               ; preds = %44
  %48 = add nsw i32 %45, -1
  store i32 %48, ptr %3, align 4, !tbaa !8
  br label %lean_dec.exit29

49:                                               ; preds = %44
  %.not.i34 = icmp eq i32 %45, 0
  br i1 %.not.i34, label %lean_dec.exit29, label %50

50:                                               ; preds = %49
  tail call void @lean_dec_ref_cold(ptr noundef nonnull %3) #4
  br label %lean_dec.exit29

lean_dec.exit29:                                  ; preds = %50, %49, %47, %lean_dec.exit30
  %51 = ptrtoint ptr %0 to i64
  %52 = and i64 %51, 1
  %.not56 = icmp eq i64 %52, 0
  br i1 %.not56, label %53, label %lean_dec.exit28

53:                                               ; preds = %lean_dec.exit29
  %54 = load i32, ptr %0, align 4, !tbaa !8
  %55 = icmp sgt i32 %54, 1
  br i1 %55, label %56, label %58, !prof !11

56:                                               ; preds = %53
  %57 = add nsw i32 %54, -1
  store i32 %57, ptr %0, align 4, !tbaa !8
  br label %lean_dec.exit28

58:                                               ; preds = %53
  %.not.i36 = icmp eq i32 %54, 0
  br i1 %.not.i36, label %lean_dec.exit28, label %59

59:                                               ; preds = %58
  tail call void @lean_dec_ref_cold(ptr noundef nonnull %0) #4
  br label %lean_dec.exit28

60:                                               ; preds = %lean_inc.exit.thread, %lean_inc.exit
  %61 = tail call ptr @l_Lean_Server_Completion_findCompletionInfosAt_go___lambda__3(ptr noundef nonnull %4, ptr noundef %0, ptr noundef %1, ptr noundef %3, ptr noundef %15, ptr noundef %5, ptr noundef %2, ptr nonnull poison)
  br i1 %.not.i46, label %62, label %lean_dec.exit28

62:                                               ; preds = %60
  %63 = load i32, ptr %4, align 4, !tbaa !8
  %64 = icmp sgt i32 %63, 1
  br i1 %64, label %65, label %67, !prof !11

65:                                               ; preds = %62
  %66 = add nsw i32 %63, -1
  store i32 %66, ptr %4, align 4, !tbaa !8
  br label %lean_dec.exit28

67:                                               ; preds = %62
  %.not.i38 = icmp eq i32 %63, 0
  br i1 %.not.i38, label %lean_dec.exit28, label %68

68:                                               ; preds = %67
  tail call void @lean_dec_ref_cold(ptr noundef nonnull %4) #4
  br label %lean_dec.exit28

.thread50:                                        ; preds = %lean_obj_tag.exit.thread
  %69 = load i32, ptr %4, align 4, !tbaa !8
  %70 = icmp sgt i32 %69, 1
  br i1 %70, label %71, label %73, !prof !11

71:                                               ; preds = %.thread50
  %72 = add nsw i32 %69, -1
  store i32 %72, ptr %4, align 4, !tbaa !8
  br label %lean_dec.exit26

73:                                               ; preds = %.thread50
  %.not.i40 = icmp eq i32 %69, 0
  br i1 %.not.i40, label %lean_dec.exit26, label %74

74:                                               ; preds = %73
  tail call void @lean_dec_ref_cold(ptr noundef nonnull %4) #4
  br label %lean_dec.exit26

lean_dec.exit26:                                  ; preds = %lean_obj_tag.exit, %74, %73, %71
  %75 = ptrtoint ptr %3 to i64
  %76 = and i64 %75, 1
  %.not = icmp eq i64 %76, 0
  br i1 %.not, label %77, label %lean_dec.exit25

77:                                               ; preds = %lean_dec.exit26
  %78 = load i32, ptr %3, align 4, !tbaa !8
  %79 = icmp sgt i32 %78, 1
  br i1 %79, label %80, label %82, !prof !11

80:                                               ; preds = %77
  %81 = add nsw i32 %78, -1
  store i32 %81, ptr %3, align 4, !tbaa !8
  br label %lean_dec.exit25

82:                                               ; preds = %77
  %.not.i42 = icmp eq i32 %78, 0
  br i1 %.not.i42, label %lean_dec.exit25, label %83

83:                                               ; preds = %82
  tail call void @lean_dec_ref_cold(ptr noundef nonnull %3) #4
  br label %lean_dec.exit25

lean_dec.exit25:                                  ; preds = %83, %82, %80, %lean_dec.exit26
  %84 = ptrtoint ptr %0 to i64
  %85 = and i64 %84, 1
  %.not51 = icmp eq i64 %85, 0
  br i1 %.not51, label %86, label %lean_dec.exit28

86:                                               ; preds = %lean_dec.exit25
  %87 = load i32, ptr %0, align 4, !tbaa !8
  %88 = icmp sgt i32 %87, 1
  br i1 %88, label %89, label %91, !prof !11

89:                                               ; preds = %86
  %90 = add nsw i32 %87, -1
  store i32 %90, ptr %0, align 4, !tbaa !8
  br label %lean_dec.exit28

91:                                               ; preds = %86
  %.not.i44 = icmp eq i32 %87, 0
  br i1 %.not.i44, label %lean_dec.exit28, label %92

92:                                               ; preds = %91
  tail call void @lean_dec_ref_cold(ptr noundef nonnull %0) #4
  br label %lean_dec.exit28

lean_dec.exit28:                                  ; preds = %lean_dec.exit25, %89, %91, %92, %60, %65, %67, %68, %lean_dec.exit29, %56, %58, %59
  %.1 = phi ptr [ %5, %59 ], [ %5, %58 ], [ %5, %56 ], [ %5, %lean_dec.exit29 ], [ %61, %68 ], [ %61, %67 ], [ %61, %65 ], [ %61, %60 ], [ %5, %92 ], [ %5, %91 ], [ %5, %89 ], [ %5, %lean_dec.exit25 ]
  ret ptr %.1
}